; Function Attrs: mustprogress uwtable
define void @_ZN6duckdb17BasePipelineEventC2ERNS_8PipelineE(ptr noundef nonnull align 8 dereferenceable(136) initializes((0, 113)) %0, ptr noundef nonnull align 8 dereferenceable(224) %1) unnamed_addr #0 align 2 personality ptr @__gxx_personality_v0 {
  %3 = getelementptr inbounds nuw i8, ptr %1, i64 16
  %4 = load ptr, ptr %3, align 8, !tbaa !3
  %5 = getelementptr inbounds nuw i8, ptr %0, i64 8
  tail call void @llvm.memset.p0.i64(ptr noundef nonnull align 8 dereferenceable(16) %5, i8 0, i64 16, i1 false)
  %6 = getelementptr inbounds nuw i8, ptr %0, i64 24
  store ptr %4, ptr %6, align 8, !tbaa !53
  %7 = getelementptr inbounds nuw i8, ptr %0, i64 32
  tail call void @llvm.memset.p0.i64(ptr noundef nonnull align 8 dereferenceable(81) %7, i8 0, i64 81, i1 false)
  store ptr getelementptr inbounds nuw inrange(-16, 48) (i8, ptr @_ZTVN6duckdb17BasePipelineEventE, i64 16), ptr %0, align 8, !tbaa !54
  %8 = getelementptr inbounds nuw i8, ptr %0, i64 120
  invoke void @_ZN6duckdb23enable_shared_from_thisINS_8PipelineEE16shared_from_thisEv(ptr dead_on_unwind nonnull writable sret(%"class.duckdb::shared_ptr") align 8 %8, ptr noundef nonnull align 8 dereferenceable(16) %1)
          to label %9 unwind label %10

9:                                                ; preds = %2
  ret void

10:                                               ; preds = %2
  %11 = landingpad { ptr, i32 }
          cleanup
  tail call void @_ZN6duckdb5EventD2Ev(ptr noundef nonnull align 8 dereferenceable(113) %0) #35
  resume { ptr, i32 } %11
}